GAS LISTING greetings.S 			page 1


   1              	/**
   2              	 * greetings.S -- –≤—ã–≤–æ–¥–∏—Ç –ø—Ä–∏–≤–µ—Ç—Å—Ç–≤–µ–Ω–Ω—É—é —Å—Ç—Ä–æ–∫—É –Ω–µ—Å–∫–æ–ª—å–∫–æ —Ä–∞–
   3              	 *
   4              	 * Copyright (c) 2014 Petrozavodsk State University
   5              	 *
   6              	 * Permission is hereby granted, free of charge, to any person obtaining
   7              	 * a copy of this software and associated documentation files (the
   8              	 * "Software"), to deal in the Software without restriction, including
   9              	 * without limitation the rights to use, copy, modify, merge, publish,
  10              	 * distribute, sublicense, and/or sell copies of the Software, and to
  11              	 * permit persons to whom the Software is furnished to do so, subject to
  12              	 * the following conditions:
  13              	 *
  14              	 * The above copyright notice and this permission notice shall be
  15              	 * included in all copies or substantial portions of the Software.
  16              	 */
  17              	
  18              	
  19              	/* –°–µ–∫—Ü–∏—è –¥–∞–Ω–Ω—ã—Ö */
  20              	
  21              	.data
  22              	
  23              	    /* –†–∞–∑–º–µ—â–∞–µ–º –Ω—É–ª—å-—Ç–µ—Ä–º–∏–Ω–∞–ª—å–Ω—É—é —Å—Ç—Ä–æ–∫—É –≤ –æ–±–ª–∞—Å—Ç–∏ –≥–ª–æ–±
  24              	       –∏–Ω–∏—Ü–∏–∞–ª–∏–∑–∏—Ä–æ–≤–∞–Ω–Ω—ã—Ö –¥–∞–Ω–Ω—ã—Ö, –º–µ—Ç–∫–∞ greeting –∞–¥—Ä–µ—Å—É–µ—Ç —Å—Ç
  25 0000 48656C6C 	    greeting: .asciz "Hello from Assembler!\n"
  25      6F206672 
  25      6F6D2041 
  25      7373656D 
  25      626C6572 
  26 0017 0A00     	    enter: .asciz "\n"
  27 0019 20202020 	    spaces: .asciz "                                                          "
  27      20202020 
  27      20202020 
  27      20202020 
  27      20202020 
  28 0054 15000000 	    n: .long 21
  29 0058 00000000 	    begin: .long 0
  30              	
  31              	
  32              	/* –°–µ–∫—Ü–∏—è –∫–æ–º–∞–Ω–¥ –ø—Ä–æ—Ü–µ—Å—Å–æ—Ä–∞ */
  33              	
  34              	.text
  35              	
  36              	    /* –ú–µ—Ç–∫–∞ _start –∞–¥—Ä–µ—Å—É–µ—Ç —Ç–æ—á–∫—É –≤—Ö–æ–¥–∞ - –ø–µ—Ä–≤—É—é –∏–Ω—Å—Ç—Ä—É–∫—Ü–∏—é
  37              	       –∫–æ–º–∞–Ω–¥ –ø—Ä–æ—Ü–µ—Å—Å–æ—Ä–∞, –∫–æ—Ç–æ—Ä–∞—è –±—É–¥–µ—Ç –∏—Å–ø–æ–ª–Ω–µ–Ω–∞ –ø—Ä–∏ –∑–∞–
  38              	       
  39              	    .global _start
  40              	    _start:                           
  41              	
  42              	    /* –ú–Ω–æ–≥–æ–∫—Ä–∞—Ç–Ω–æ –≤—ã–≤–æ–¥–∏–º —Å—Ç—Ä–æ–∫—É –Ω–∞ —ç–∫—Ä–∞–Ω */
  43              	    
  44 0000 BE0B0000 	    movl $11, %esi          # —Ñ–∏–∫—Å–∏—Ä—É–µ–º —Å—á–µ—Ç—á–∏–∫ –ø–æ–≤—Ç–æ—Ä–µ–Ω–∏–π
  44      00
  45              	  
  46              	  next:
  47              	    # –í—ã–≤–æ–¥ –ø—Ä–æ–±–µ–ª–æ–≤ –≤–Ω–∞—á–∞–ª–µ
  48 0005 B8040000 	    movl $4, %eax           # –ø–æ–º–µ—â–∞–µ–º –Ω–æ–º–µ—Ä —Å–∏—Å—Ç–µ–º–Ω–æ–≥–æ –≤—ã–∑–æ–≤–∞ write
GAS LISTING greetings.S 			page 2


  48      00
  49              	                            # –≤ —Ä–µ–≥–∏—Å—Ç—Ä eax                            
  50 000a BB010000 	    movl $1, %ebx           # –ø–æ–º–µ—â–∞–µ–º –Ω–æ–º–µ—Ä –¥–µ—Å–∫—Ä–∏–ø—Ç–æ—Ä–∞ —Ñ–∞–π–ª–∞ –≤ —Ä–µ
  50      00
  51              	                            # –µ–¥–∏–Ω–∏—Ü–∞ —Å–æ–æ—Ç–≤–µ—Ç—Å—Ç–≤—É–µ—Ç —Å—Ç–∞–Ω–¥–∞—Ä—Ç–Ω–æ–º—É –≤
  52 000f 8D0D1900 	    leal spaces, %ecx     # –ø–æ–º–µ—â–∞–µ–º –∞–¥—Ä–µ—Å –≤—ã–≤–æ–¥–∏–º–æ–π —Å—Ç—Ä–æ–∫–∏ –≤ —Ä–µ–≥–∏
  52      0000
  53              	
  54              	    
  55              	
  56              	                            # (–æ–±—ä—è—Å–Ω–∏—Ç–µ, –ø–æ—á–µ–º—É –Ω–µ movl greeting, %ecx
  57 0015 8B155800 	    movl begin, %edx          # –ø–æ–º–µ—â–∞–µ–º –≤ —Ä–µ–≥–∏—Å—Ç—Ä edx –∫–æ–ª–∏—á–µ—Å—Ç–≤–æ –±–∞–π—
  57      0000
  58              	                            # –∑–∞–¥–∞–Ω–Ω–æ–≥–æ –∞–¥—Ä–µ—Å–∞, –∫–æ—Ç–æ—Ä—ã–µ –Ω—É–∂–Ω–æ –æ—Ç–ø—Ä–∞
  59 001b CD80     	    int  $0x80	            # –æ–±—Ä–∞—â–∞–µ–º—Å—è –∫ –æ–±—Ä–∞–±–æ—Ç—á–∏–∫—É —Å–∏—Å—Ç–µ–º–Ω—ã—Ö –≤—ã
  60              	
  61              	
  62              	    # –í—ã–≤–æ–¥ —Ñ—Ä–∞–∑—ã –æ—Å–Ω–æ–≤–Ω–æ–π greetings
  63 001d B8040000 	    movl $4, %eax           # –ø–æ–º–µ—â–∞–µ–º –Ω–æ–º–µ—Ä —Å–∏—Å—Ç–µ–º–Ω–æ–≥–æ –≤—ã–∑–æ–≤–∞ write
  63      00
  64              	                            # –≤ —Ä–µ–≥–∏—Å—Ç—Ä eax                            
  65 0022 BB010000 	    movl $1, %ebx           # –ø–æ–º–µ—â–∞–µ–º –Ω–æ–º–µ—Ä –¥–µ—Å–∫—Ä–∏–ø—Ç–æ—Ä–∞ —Ñ–∞–π–ª–∞ –≤ —Ä–µ
  65      00
  66              	                            # –µ–¥–∏–Ω–∏—Ü–∞ —Å–æ–æ—Ç–≤–µ—Ç—Å—Ç–≤—É–µ—Ç —Å—Ç–∞–Ω–¥–∞—Ä—Ç–Ω–æ–º—É –≤
  67 0027 8D0D0000 	    leal greeting, %ecx     # –ø–æ–º–µ—â–∞–µ–º –∞–¥—Ä–µ—Å –≤—ã–≤–æ–¥–∏–º–æ–π —Å—Ç—Ä–æ–∫–∏ –≤ —Ä–µ–≥
  67      0000
  68              	
  69 002d 030D5800 	    addl begin, %ecx   # –ø–µ—Ä–µ–º–µ—â–∞–µ–º —É–∫–∞–∑–∞—Ç–µ–ª—å –Ω–∞ –∞–¥—Ä–µ—Å—Å –≤ –ø–∞–º—è—Ç–∏,
  69      0000
  70 0033 83055800 	    addl $1, begin
  70      000001
  71              	
  72              	                            # (–æ–±—ä—è—Å–Ω–∏—Ç–µ, –ø–æ—á–µ–º—É –Ω–µ movl greeting, %ecx
  73 003a 8B155400 	    movl n, %edx          # –ø–æ–º–µ—â–∞–µ–º –≤ —Ä–µ–≥–∏—Å—Ç—Ä edx –∫–æ–ª–∏—á–µ—Å—Ç–≤–æ –±–∞–π—Ç, –
  73      0000
  74              	                            # –∑–∞–¥–∞–Ω–Ω–æ–≥–æ –∞–¥—Ä–µ—Å–∞, –∫–æ—Ç–æ—Ä—ã–µ –Ω—É–∂–Ω–æ –æ—Ç–ø—Ä–∞
  75 0040 CD80     	    int  $0x80	            # –æ–±—Ä–∞—â–∞–µ–º—Å—è –∫ –æ–±—Ä–∞–±–æ—Ç—á–∏–∫—É —Å–∏—Å—Ç–µ–º–Ω—ã—Ö –≤—ã
  76              	
  77              	
  78              	
  79              	    # –í—ã–≤–æ–¥ –ø–µ—Ä–µ–≤–æ–¥–∞ —Å—Ç—Ä–æ–∫–∏
  80 0042 B8040000 	    movl $4, %eax           # –ø–æ–º–µ—â–∞–µ–º –Ω–æ–º–µ—Ä —Å–∏—Å—Ç–µ–º–Ω–æ–≥–æ –≤—ã–∑–æ–≤–∞ write
  80      00
  81              	                            # –≤ —Ä–µ–≥–∏—Å—Ç—Ä eax                            
  82 0047 BB010000 	    movl $1, %ebx           # –ø–æ–º–µ—â–∞–µ–º –Ω–æ–º–µ—Ä –¥–µ—Å–∫—Ä–∏–ø—Ç–æ—Ä–∞ —Ñ–∞–π–ª–∞ –≤ —Ä–µ
  82      00
  83              	                            # –µ–¥–∏–Ω–∏—Ü–∞ —Å–æ–æ—Ç–≤–µ—Ç—Å—Ç–≤—É–µ—Ç —Å—Ç–∞–Ω–¥–∞—Ä—Ç–Ω–æ–º—É –≤
  84 004c 8D0D1700 	    leal enter, %ecx     # –ø–æ–º–µ—â–∞–µ–º –∞–¥—Ä–µ—Å –≤—ã–≤–æ–¥–∏–º–æ–π —Å—Ç—Ä–æ–∫–∏ –≤ —Ä–µ–≥–∏—
  84      0000
  85              	                            # (–æ–±—ä—è—Å–Ω–∏—Ç–µ, –ø–æ—á–µ–º—É –Ω–µ movl greeting, %ecx
  86 0052 BA010000 	    movl $1, %edx          # –ø–æ–º–µ—â–∞–µ–º –≤ —Ä–µ–≥–∏—Å—Ç—Ä edx –∫–æ–ª–∏—á–µ—Å—Ç–≤–æ –±–∞–π—Ç, 
  86      00
  87              	                            # –∑–∞–¥–∞–Ω–Ω–æ–≥–æ –∞–¥—Ä–µ—Å–∞, –∫–æ—Ç–æ—Ä—ã–µ –Ω—É–∂–Ω–æ –æ—Ç–ø—Ä–∞
  88 0057 CD80     	    int  $0x80	            # –æ–±—Ä–∞—â–∞–µ–º—Å—è –∫ –æ–±—Ä–∞–±–æ—Ç—á–∏–∫—É —Å–∏—Å—Ç–µ–º–Ω—ã—Ö –≤—ã
  89              	
  90              	
  91              	
GAS LISTING greetings.S 			page 3


  92 0059 832D5400 	    subl $2, n # –£–º–µ–Ω—å—à–∞–µ–º —Å—Ç—Ä–æ–∫—É –∫–∞–∂–¥—ã–π —Ä–∞–∑
  92      000002
  93              	  
  94              	                            # –û–° Linux, –∫–æ—Ç–æ—Ä—ã–π –≤—ã–ø–æ–ª–Ω—è–µ—Ç –≤—ã–∑–æ–≤ –ø–æ –µ–≥–æ 
  95 0060 83EE01   	    subl $1, %esi           # —É–º–µ–Ω—å—à–∞–µ–º —Å—á–µ—Ç—á–∏–∫
  96 0063 83FE01   	    cmpl $1, %esi           # –µ—Å–ª–∏ —Ç—Ä–µ–±—É–µ–º–æ–µ —á–∏—Å–ª–æ –ø–æ–≤—Ç–æ—Ä–µ–Ω–∏–π –¥–æ—Å—Ç–
  97 0066 7402     	    je bottom_clock                 # –ø–µ—Ä–µ—Ö–æ–¥–∏–º –∫ –∑–∞–≤–µ—Ä—à–µ–Ω–∏—é –ø—Ä–æ–≥—Ä–∞–º–º—ã
  98 0068 EB9B     	    jmp next                # –∏–Ω–∞—á–µ –ø–æ–≤—Ç–æ—Ä—è–µ–º –µ—â–µ —Ä–∞–∑
  99              	
 100              	
 101              	
 102              	  # –í—Ç–æ—Ä–æ–π —Ü–∏–∫–ª –Ω–∏–∑–∞ —á–∞—Å–æ–≤
 103              	  bottom_clock:
 104 006a BE0B0000 	    movl $11, %esi          # —Ñ–∏–∫—Å–∏—Ä—É–µ–º —Å—á–µ—Ç—á–∏–∫ –ø–æ–≤—Ç–æ—Ä–µ–Ω–∏–π
 104      00
 105              	
 106 006f C7055400 	    movl $3, n
 106      00000300 
 106      0000
 107 0079 C7055800 	    movl $9, begin
 107      00000900 
 107      0000
 108              	
 109              	     # –í—ã–≤–æ–¥ –ø–µ—Ä–µ–≤–æ–¥–∞ —Å—Ç—Ä–æ–∫–∏
 110 0083 B8040000 	    movl $4, %eax           # –ø–æ–º–µ—â–∞–µ–º –Ω–æ–º–µ—Ä —Å–∏—Å—Ç–µ–º–Ω–æ–≥–æ –≤—ã–∑–æ–≤–∞ write
 110      00
 111              	                            # –≤ —Ä–µ–≥–∏—Å—Ç—Ä eax                            
 112 0088 BB010000 	    movl $1, %ebx           # –ø–æ–º–µ—â–∞–µ–º –Ω–æ–º–µ—Ä –¥–µ—Å–∫—Ä–∏–ø—Ç–æ—Ä–∞ —Ñ–∞–π–ª–∞ –≤ —Ä–µ
 112      00
 113              	                            # –µ–¥–∏–Ω–∏—Ü–∞ —Å–æ–æ—Ç–≤–µ—Ç—Å—Ç–≤—É–µ—Ç —Å—Ç–∞–Ω–¥–∞—Ä—Ç–Ω–æ–º—É –≤
 114 008d 8D0D1700 	    leal enter, %ecx     # –ø–æ–º–µ—â–∞–µ–º –∞–¥—Ä–µ—Å –≤—ã–≤–æ–¥–∏–º–æ–π —Å—Ç—Ä–æ–∫–∏ –≤ —Ä–µ–≥–∏—
 114      0000
 115              	                            # (–æ–±—ä—è—Å–Ω–∏—Ç–µ, –ø–æ—á–µ–º—É –Ω–µ movl greeting, %ecx
 116 0093 BA010000 	    movl $1, %edx          # –ø–æ–º–µ—â–∞–µ–º –≤ —Ä–µ–≥–∏—Å—Ç—Ä edx –∫–æ–ª–∏—á–µ—Å—Ç–≤–æ –±–∞–π—Ç, 
 116      00
 117              	                            # –∑–∞–¥–∞–Ω–Ω–æ–≥–æ –∞–¥—Ä–µ—Å–∞, –∫–æ—Ç–æ—Ä—ã–µ –Ω—É–∂–Ω–æ –æ—Ç–ø—Ä–∞
 118 0098 CD80     	    int  $0x80	            # –æ–±—Ä–∞—â–∞–µ–º—Å—è –∫ –æ–±—Ä–∞–±–æ—Ç—á–∏–∫—É —Å–∏—Å—Ç–µ–º–Ω—ã—Ö –≤—ã
 119              	
 120              	
 121 009a EB00     	    jmp next_bottom
 122              	    
 123              	
 124              	  next_bottom:
 125              	    # –í—ã–≤–æ–¥ –ø—Ä–æ–±–µ–ª–æ–≤ –≤–Ω–∞—á–∞–ª–µ
 126 009c B8040000 	    movl $4, %eax           # –ø–æ–º–µ—â–∞–µ–º –Ω–æ–º–µ—Ä —Å–∏—Å—Ç–µ–º–Ω–æ–≥–æ –≤—ã–∑–æ–≤–∞ write
 126      00
 127              	                            # –≤ —Ä–µ–≥–∏—Å—Ç—Ä eax                            
 128 00a1 BB010000 	    movl $1, %ebx           # –ø–æ–º–µ—â–∞–µ–º –Ω–æ–º–µ—Ä –¥–µ—Å–∫—Ä–∏–ø—Ç–æ—Ä–∞ —Ñ–∞–π–ª–∞ –≤ —Ä–µ
 128      00
 129              	                            # –µ–¥–∏–Ω–∏—Ü–∞ —Å–æ–æ—Ç–≤–µ—Ç—Å—Ç–≤—É–µ—Ç —Å—Ç–∞–Ω–¥–∞—Ä—Ç–Ω–æ–º—É –≤
 130 00a6 8D0D1900 	    leal spaces, %ecx     # –ø–æ–º–µ—â–∞–µ–º –∞–¥—Ä–µ—Å –≤—ã–≤–æ–¥–∏–º–æ–π —Å—Ç—Ä–æ–∫–∏ –≤ —Ä–µ–≥–∏
 130      0000
 131              	
 132              	    
 133              	                            # (–æ–±—ä—è—Å–Ω–∏—Ç–µ, –ø–æ—á–µ–º—É –Ω–µ movl greeting, %ecx
 134 00ac 8B155800 	    movl begin, %edx          # –ø–æ–º–µ—â–∞–µ–º –≤ —Ä–µ–≥–∏—Å—Ç—Ä edx –∫–æ–ª–∏—á–µ—Å—Ç–≤–æ –±–∞–π—
 134      0000
GAS LISTING greetings.S 			page 4


 135              	                            # –∑–∞–¥–∞–Ω–Ω–æ–≥–æ –∞–¥—Ä–µ—Å–∞, –∫–æ—Ç–æ—Ä—ã–µ –Ω—É–∂–Ω–æ –æ—Ç–ø—Ä–∞
 136 00b2 CD80     	    int  $0x80	            # –æ–±—Ä–∞—â–∞–µ–º—Å—è –∫ –æ–±—Ä–∞–±–æ—Ç—á–∏–∫—É —Å–∏—Å—Ç–µ–º–Ω—ã—Ö –≤—ã
 137              	
 138              	
 139              	    # –í—ã–≤–æ–¥ —Ñ—Ä–∞–∑—ã –æ—Å–Ω–æ–≤–Ω–æ–π greetings
 140 00b4 B8040000 	    movl $4, %eax           # –ø–æ–º–µ—â–∞–µ–º –Ω–æ–º–µ—Ä —Å–∏—Å—Ç–µ–º–Ω–æ–≥–æ –≤—ã–∑–æ–≤–∞ write
 140      00
 141              	                            # –≤ —Ä–µ–≥–∏—Å—Ç—Ä eax                            
 142 00b9 BB010000 	    movl $1, %ebx           # –ø–æ–º–µ—â–∞–µ–º –Ω–æ–º–µ—Ä –¥–µ—Å–∫—Ä–∏–ø—Ç–æ—Ä–∞ —Ñ–∞–π–ª–∞ –≤ —Ä–µ
 142      00
 143              	                            # –µ–¥–∏–Ω–∏—Ü–∞ —Å–æ–æ—Ç–≤–µ—Ç—Å—Ç–≤—É–µ—Ç —Å—Ç–∞–Ω–¥–∞—Ä—Ç–Ω–æ–º—É –≤
 144 00be 8D0D0000 	    leal greeting, %ecx     # –ø–æ–º–µ—â–∞–µ–º –∞–¥—Ä–µ—Å –≤—ã–≤–æ–¥–∏–º–æ–π —Å—Ç—Ä–æ–∫–∏ –≤ —Ä–µ–≥
 144      0000
 145              	
 146 00c4 030D5800 	    addl begin, %ecx   # –ø–µ—Ä–µ–º–µ—â–∞–µ–º —É–∫–∞–∑–∞—Ç–µ–ª—å –Ω–∞ –∞–¥—Ä–µ—Å—Å –≤ –ø–∞–º—è—Ç–∏,
 146      0000
 147 00ca 832D5800 	    subl $1, begin
 147      000001
 148              	
 149              	                            # (–æ–±—ä—è—Å–Ω–∏—Ç–µ, –ø–æ—á–µ–º—É –Ω–µ movl greeting, %ecx
 150 00d1 8B155400 	    movl n, %edx          # –ø–æ–º–µ—â–∞–µ–º –≤ —Ä–µ–≥–∏—Å—Ç—Ä edx –∫–æ–ª–∏—á–µ—Å—Ç–≤–æ –±–∞–π—Ç, –
 150      0000
 151              	                            # –∑–∞–¥–∞–Ω–Ω–æ–≥–æ –∞–¥—Ä–µ—Å–∞, –∫–æ—Ç–æ—Ä—ã–µ –Ω—É–∂–Ω–æ –æ—Ç–ø—Ä–∞
 152 00d7 CD80     	    int  $0x80	            # –æ–±—Ä–∞—â–∞–µ–º—Å—è –∫ –æ–±—Ä–∞–±–æ—Ç—á–∏–∫—É —Å–∏—Å—Ç–µ–º–Ω—ã—Ö –≤—ã
 153              	
 154              	
 155              	
 156              	    # –í—ã–≤–æ–¥ –ø–µ—Ä–µ–≤–æ–¥–∞ —Å—Ç—Ä–æ–∫–∏
 157 00d9 B8040000 	    movl $4, %eax           # –ø–æ–º–µ—â–∞–µ–º –Ω–æ–º–µ—Ä —Å–∏—Å—Ç–µ–º–Ω–æ–≥–æ –≤—ã–∑–æ–≤–∞ write
 157      00
 158              	                            # –≤ —Ä–µ–≥–∏—Å—Ç—Ä eax                            
 159 00de BB010000 	    movl $1, %ebx           # –ø–æ–º–µ—â–∞–µ–º –Ω–æ–º–µ—Ä –¥–µ—Å–∫—Ä–∏–ø—Ç–æ—Ä–∞ —Ñ–∞–π–ª–∞ –≤ —Ä–µ
 159      00
 160              	                            # –µ–¥–∏–Ω–∏—Ü–∞ —Å–æ–æ—Ç–≤–µ—Ç—Å—Ç–≤—É–µ—Ç —Å—Ç–∞–Ω–¥–∞—Ä—Ç–Ω–æ–º—É –≤
 161 00e3 8D0D1700 	    leal enter, %ecx     # –ø–æ–º–µ—â–∞–µ–º –∞–¥—Ä–µ—Å –≤—ã–≤–æ–¥–∏–º–æ–π —Å—Ç—Ä–æ–∫–∏ –≤ —Ä–µ–≥–∏—
 161      0000
 162              	                            # (–æ–±—ä—è—Å–Ω–∏—Ç–µ, –ø–æ—á–µ–º—É –Ω–µ movl greeting, %ecx
 163 00e9 BA010000 	    movl $1, %edx          # –ø–æ–º–µ—â–∞–µ–º –≤ —Ä–µ–≥–∏—Å—Ç—Ä edx –∫–æ–ª–∏—á–µ—Å—Ç–≤–æ –±–∞–π—Ç, 
 163      00
 164              	                            # –∑–∞–¥–∞–Ω–Ω–æ–≥–æ –∞–¥—Ä–µ—Å–∞, –∫–æ—Ç–æ—Ä—ã–µ –Ω—É–∂–Ω–æ –æ—Ç–ø—Ä–∞
 165 00ee CD80     	    int  $0x80	            # –æ–±—Ä–∞—â–∞–µ–º—Å—è –∫ –æ–±—Ä–∞–±–æ—Ç—á–∏–∫—É —Å–∏—Å—Ç–µ–º–Ω—ã—Ö –≤—ã
 166              	
 167              	
 168              	
 169 00f0 83055400 	    addl $2, n # –£–º–µ–Ω—å—à–∞–µ–º —Å—Ç—Ä–æ–∫—É –∫–∞–∂–¥—ã–π —Ä–∞–∑
 169      000002
 170              	  
 171              	                            # –û–° Linux, –∫–æ—Ç–æ—Ä—ã–π –≤—ã–ø–æ–ª–Ω—è–µ—Ç –≤—ã–∑–æ–≤ –ø–æ –µ–≥–æ 
 172 00f7 83EE01   	    subl $1, %esi           # —É–º–µ–Ω—å—à–∞–µ–º —Å—á–µ—Ç—á–∏–∫
 173 00fa 83FE01   	    cmpl $1, %esi           # –µ—Å–ª–∏ —Ç—Ä–µ–±—É–µ–º–æ–µ —á–∏—Å–ª–æ –ø–æ–≤—Ç–æ—Ä–µ–Ω–∏–π –¥–æ—Å—Ç–
 174 00fd 7402     	    je done                # –ø–µ—Ä–µ—Ö–æ–¥–∏–º –∫ –∑–∞–≤–µ—Ä—à–µ–Ω–∏—é –ø—Ä–æ–≥—Ä–∞–º–º—ã
 175 00ff EB9B     	    jmp next_bottom             # –∏–Ω–∞—á–µ –ø–æ–≤—Ç–æ—Ä—è–µ–º –µ—â–µ —Ä–∞–∑
 176              	
 177              	
 178              	
 179              	  done:                            
 180              	
GAS LISTING greetings.S 			page 5


 181              	    /* –ó–∞–≤–µ—Ä—à–∞–µ–º –≤—ã–ø–æ–ª–Ω–µ–Ω–∏–µ –ø—Ä–æ–≥—Ä–∞–º–º—ã —Å –ø–æ–º–æ—â—å—é —Å–∏—Å—Ç–µ–º–Ω–
 182              	    
 183 0101 B8010000 	    movl $1, %eax           # –ø–æ–º–µ—â–∞–µ–º –Ω–æ–º–µ—Ä —Å–∏—Å—Ç–µ–º–Ω–æ–≥–æ –≤—ã–∑–æ–≤–∞ _exit
 183      00
 184              	                            # –≤ —Ä–µ–≥–∏—Å—Ç—Ä eax
 185 0106 BB000000 	    movl $0, %ebx           # –ø–æ–º–µ—â–∞–µ–º –∫–æ–¥ –≤–æ–∑–≤—Ä–∞—Ç–∞ –≤ —Ä–µ–≥–∏—Å—Ç—Ä ebx,
 185      00
 186              	                            # –Ω—É–ª–µ–≤–æ–π –∫–æ–¥ —Å–æ–æ—Ç–≤–µ—Ç—Å—Ç–≤—É–µ—Ç —É—Å–ø–µ—à–Ω–æ–º—É –
 187 010b CD80     	    int  $0x80              # –æ–±—Ä–∞—â–∞–µ–º—Å—è –∫ –û–°
 188              	
 189              	.end                        # –ø–æ—Å–ª–µ–¥–Ω—è—è —Å—Ç—Ä–æ–∫–∞ –∏—Å—Ö–æ–¥–Ω–æ–≥–æ —Ç–µ–∫—Å—Ç–∞...
GAS LISTING greetings.S 			page 6


DEFINED SYMBOLS
         greetings.S:25     .data:0000000000000000 greeting
         greetings.S:26     .data:0000000000000017 enter
         greetings.S:27     .data:0000000000000019 spaces
         greetings.S:28     .data:0000000000000054 n
         greetings.S:29     .data:0000000000000058 begin
         greetings.S:40     .text:0000000000000000 _start
         greetings.S:46     .text:0000000000000005 next
         greetings.S:103    .text:000000000000006a bottom_clock
         greetings.S:124    .text:000000000000009c next_bottom
         greetings.S:179    .text:0000000000000101 done

NO UNDEFINED SYMBOLS
